target datalayout = "e-m:e-p270:32:32-p271:32:32-p272:64:64-i64:64-i128:128-f80:128-n8:16:32:64-S128"
target triple = "x86_64-pc-linux-gnu"

%struct.mbedtls_mpi = type { ptr, i16, i16 }
%struct.mbedtls_rsa_context = type { i32, i64, %struct.mbedtls_mpi, %struct.mbedtls_mpi, %struct.mbedtls_mpi, %struct.mbedtls_mpi, %struct.mbedtls_mpi, %struct.mbedtls_mpi, %struct.mbedtls_mpi, %struct.mbedtls_mpi, %struct.mbedtls_mpi, %struct.mbedtls_mpi, %struct.mbedtls_mpi, %struct.mbedtls_mpi, %struct.mbedtls_mpi, i32, i32 }

; Function Attrs: nounwind uwtable
define hidden i32 @mbedtls_rsa_export(ptr noundef %0, ptr noundef %1, ptr noundef %2, ptr noundef %3, ptr noundef %4, ptr noundef %5) #0 {
  %7 = alloca i32, align 4
  %8 = alloca ptr, align 8
  %9 = alloca ptr, align 8
  %10 = alloca ptr, align 8
  %11 = alloca ptr, align 8
  %12 = alloca ptr, align 8
  %13 = alloca ptr, align 8
  %14 = alloca i32, align 4
  %15 = alloca i32, align 4
  %16 = alloca i32, align 4
  store ptr %0, ptr %8, align 8, !tbaa !3
  store ptr %1, ptr %9, align 8, !tbaa !17
  store ptr %2, ptr %10, align 8, !tbaa !17
  store ptr %3, ptr %11, align 8, !tbaa !17
  store ptr %4, ptr %12, align 8, !tbaa !17
  store ptr %5, ptr %13, align 8, !tbaa !17
  call void @llvm.lifetime.start.p0(i64 4, ptr %14) #9
  store i32 -110, ptr %14, align 4, !tbaa !12
  call void @llvm.lifetime.start.p0(i64 4, ptr %15) #9
  %17 = load ptr, ptr %8, align 8, !tbaa !3
  %18 = getelementptr inbounds nuw %struct.mbedtls_rsa_context, ptr %17, i32 0, i32 2
  %19 = call i32 @mbedtls_mpi_cmp_int(ptr noundef %18, i64 noundef 0)
  %20 = icmp ne i32 %19, 0
  br i1 %20, label %21, label %41

21:                                               ; preds = %6
  %22 = load ptr, ptr %8, align 8, !tbaa !3
  %23 = getelementptr inbounds nuw %struct.mbedtls_rsa_context, ptr %22, i32 0, i32 5
  %24 = call i32 @mbedtls_mpi_cmp_int(ptr noundef %23, i64 noundef 0)
  %25 = icmp ne i32 %24, 0
  br i1 %25, label %26, label %41

26:                                               ; preds = %21
  %27 = load ptr, ptr %8, align 8, !tbaa !3
  %28 = getelementptr inbounds nuw %struct.mbedtls_rsa_context, ptr %27, i32 0, i32 6
  %29 = call i32 @mbedtls_mpi_cmp_int(ptr noundef %28, i64 noundef 0)
  %30 = icmp ne i32 %29, 0
  br i1 %30, label %31, label %41

31:                                               ; preds = %26
  %32 = load ptr, ptr %8, align 8, !tbaa !3
  %33 = getelementptr inbounds nuw %struct.mbedtls_rsa_context, ptr %32, i32 0, i32 4
  %34 = call i32 @mbedtls_mpi_cmp_int(ptr noundef %33, i64 noundef 0)
  %35 = icmp ne i32 %34, 0
  br i1 %35, label %36, label %41

36:                                               ; preds = %31
  %37 = load ptr, ptr %8, align 8, !tbaa !3
  %38 = getelementptr inbounds nuw %struct.mbedtls_rsa_context, ptr %37, i32 0, i32 3
  %39 = call i32 @mbedtls_mpi_cmp_int(ptr noundef %38, i64 noundef 0)
  %40 = icmp ne i32 %39, 0
  br label %41

41:                                               ; preds = %36, %31, %26, %21, %6
  %42 = phi i1 [ false, %31 ], [ false, %26 ], [ false, %21 ], [ false, %6 ], [ %40, %36 ]
  %43 = zext i1 %42 to i32
  store i32 %43, ptr %15, align 4, !tbaa !12
  %44 = load i32, ptr %15, align 4, !tbaa !12
  %45 = icmp ne i32 %44, 0
  br i1 %45, label %57, label %46

46:                                               ; preds = %41
  %47 = load ptr, ptr %10, align 8, !tbaa !17
  %48 = icmp ne ptr %47, null
  br i1 %48, label %55, label %49

49:                                               ; preds = %46
  %50 = load ptr, ptr %11, align 8, !tbaa !17
  %51 = icmp ne ptr %50, null
  br i1 %51, label %55, label %52

52:                                               ; preds = %49
  %53 = load ptr, ptr %12, align 8, !tbaa !17
  %54 = icmp ne ptr %53, null
  br i1 %54, label %55, label %56

55:                                               ; preds = %52, %49, %46
  store i32 -16512, ptr %7, align 4
  store i32 1, ptr %16, align 4
  br label %105

56:                                               ; preds = %52
  br label %57

57:                                               ; preds = %56, %41
  %58 = load ptr, ptr %9, align 8, !tbaa !17
  %59 = icmp ne ptr %58, null
  br i1 %59, label %60, label %66

60:                                               ; preds = %57
  %61 = load ptr, ptr %9, align 8, !tbaa !17
  %62 = load ptr, ptr %8, align 8, !tbaa !3
  %63 = getelementptr inbounds nuw %struct.mbedtls_rsa_context, ptr %62, i32 0, i32 2
  %64 = call i32 @mbedtls_mpi_copy(ptr noundef %61, ptr noundef %63)
  store i32 %64, ptr %14, align 4, !tbaa !12
  %65 = icmp ne i32 %64, 0
  br i1 %65, label %102, label %66

66:                                               ; preds = %60, %57
  %67 = load ptr, ptr %10, align 8, !tbaa !17
  %68 = icmp ne ptr %67, null
  br i1 %68, label %69, label %75

69:                                               ; preds = %66
  %70 = load ptr, ptr %10, align 8, !tbaa !17
  %71 = load ptr, ptr %8, align 8, !tbaa !3
  %72 = getelementptr inbounds nuw %struct.mbedtls_rsa_context, ptr %71, i32 0, i32 5
  %73 = call i32 @mbedtls_mpi_copy(ptr noundef %70, ptr noundef %72)
  store i32 %73, ptr %14, align 4, !tbaa !12
  %74 = icmp ne i32 %73, 0
  br i1 %74, label %102, label %75

75:                                               ; preds = %69, %66
  %76 = load ptr, ptr %11, align 8, !tbaa !17
  %77 = icmp ne ptr %76, null
  br i1 %77, label %78, label %84

78:                                               ; preds = %75
  %79 = load ptr, ptr %11, align 8, !tbaa !17
  %80 = load ptr, ptr %8, align 8, !tbaa !3
  %81 = getelementptr inbounds nuw %struct.mbedtls_rsa_context, ptr %80, i32 0, i32 6
  %82 = call i32 @mbedtls_mpi_copy(ptr noundef %79, ptr noundef %81)
  store i32 %82, ptr %14, align 4, !tbaa !12
  %83 = icmp ne i32 %82, 0
  br i1 %83, label %102, label %84

84:                                               ; preds = %78, %75
  %85 = load ptr, ptr %12, align 8, !tbaa !17
  %86 = icmp ne ptr %85, null
  br i1 %86, label %87, label %93

87:                                               ; preds = %84
  %88 = load ptr, ptr %12, align 8, !tbaa !17
  %89 = load ptr, ptr %8, align 8, !tbaa !3
  %90 = getelementptr inbounds nuw %struct.mbedtls_rsa_context, ptr %89, i32 0, i32 4
  %91 = call i32 @mbedtls_mpi_copy(ptr noundef %88, ptr noundef %90)
  store i32 %91, ptr %14, align 4, !tbaa !12
  %92 = icmp ne i32 %91, 0
  br i1 %92, label %102, label %93

93:                                               ; preds = %87, %84
  %94 = load ptr, ptr %13, align 8, !tbaa !17
  %95 = icmp ne ptr %94, null
  br i1 %95, label %96, label %104

96:                                               ; preds = %93
  %97 = load ptr, ptr %13, align 8, !tbaa !17
  %98 = load ptr, ptr %8, align 8, !tbaa !3
  %99 = getelementptr inbounds nuw %struct.mbedtls_rsa_context, ptr %98, i32 0, i32 3
  %100 = call i32 @mbedtls_mpi_copy(ptr noundef %97, ptr noundef %99)
  store i32 %100, ptr %14, align 4, !tbaa !12
  %101 = icmp ne i32 %100, 0
  br i1 %101, label %102, label %104

102:                                              ; preds = %96, %87, %78, %69, %60
  %103 = load i32, ptr %14, align 4, !tbaa !12
  store i32 %103, ptr %7, align 4
  store i32 1, ptr %16, align 4
  br label %105

104:                                              ; preds = %96, %93
  store i32 0, ptr %7, align 4
  store i32 1, ptr %16, align 4
  br label %105

105:                                              ; preds = %104, %102, %55
  call void @llvm.lifetime.end.p0(i64 4, ptr %15) #9
  call void @llvm.lifetime.end.p0(i64 4, ptr %14) #9
  %106 = load i32, ptr %7, align 4
  ret i32 %106
}

; Function Attrs: nounwind uwtable
define hidden i32 @mbedtls_rsa_write_pubkey(ptr noundef %0, ptr noundef %1, ptr noundef %2) #0 {
  %4 = alloca i32, align 4
  %5 = alloca ptr, align 8
  %6 = alloca ptr, align 8
  %7 = alloca ptr, align 8
  %8 = alloca i32, align 4
  %9 = alloca i64, align 8
  %10 = alloca %struct.mbedtls_mpi, align 8
  %11 = alloca i32, align 4
  store ptr %0, ptr %5, align 8, !tbaa !3
  store ptr %1, ptr %6, align 8, !tbaa !8
  store ptr %2, ptr %7, align 8, !tbaa !14
  call void @llvm.lifetime.start.p0(i64 4, ptr %8) #9
  store i32 -110, ptr %8, align 4, !tbaa !12
  call void @llvm.lifetime.start.p0(i64 8, ptr %9) #9
  store i64 0, ptr %9, align 8, !tbaa !10
  call void @llvm.lifetime.start.p0(i64 16, ptr %10) #9
  call void @mbedtls_mpi_init(ptr noundef %10)
  %12 = load ptr, ptr %5, align 8, !tbaa !3
  %13 = call i32 @mbedtls_rsa_export(ptr noundef %12, ptr noundef null, ptr noundef null, ptr noundef null, ptr noundef null, ptr noundef %10)
  store i32 %13, ptr %8, align 4, !tbaa !12
  %14 = icmp ne i32 %13, 0
  br i1 %14, label %20, label %15

15:                                               ; preds = %3
  %16 = load ptr, ptr %7, align 8, !tbaa !14
  %17 = load ptr, ptr %6, align 8, !tbaa !8
  %18 = call i32 @mbedtls_asn1_write_mpi(ptr noundef %16, ptr noundef %17, ptr noundef %10)
  store i32 %18, ptr %8, align 4, !tbaa !12
  %19 = icmp slt i32 %18, 0
  br i1 %19, label %20, label %21

20:                                               ; preds = %15, %3
  br label %40

21:                                               ; preds = %15
  %22 = load i32, ptr %8, align 4, !tbaa !12
  %23 = sext i32 %22 to i64
  %24 = load i64, ptr %9, align 8, !tbaa !10
  %25 = add i64 %24, %23
  store i64 %25, ptr %9, align 8, !tbaa !10
  %26 = load ptr, ptr %5, align 8, !tbaa !3
  %27 = call i32 @mbedtls_rsa_export(ptr noundef %26, ptr noundef %10, ptr noundef null, ptr noundef null, ptr noundef null, ptr noundef null)
  store i32 %27, ptr %8, align 4, !tbaa !12
  %28 = icmp ne i32 %27, 0
  br i1 %28, label %34, label %29

29:                                               ; preds = %21
  %30 = load ptr, ptr %7, align 8, !tbaa !14
  %31 = load ptr, ptr %6, align 8, !tbaa !8
  %32 = call i32 @mbedtls_asn1_write_mpi(ptr noundef %30, ptr noundef %31, ptr noundef %10)
  store i32 %32, ptr %8, align 4, !tbaa !12
  %33 = icmp slt i32 %32, 0
  br i1 %33, label %34, label %35

34:                                               ; preds = %29, %21
  br label %40

35:                                               ; preds = %29
  %36 = load i32, ptr %8, align 4, !tbaa !12
  %37 = sext i32 %36 to i64
  %38 = load i64, ptr %9, align 8, !tbaa !10
  %39 = add i64 %38, %37
  store i64 %39, ptr %9, align 8, !tbaa !10
  br label %40

40:                                               ; preds = %35, %34, %20
  call void @mbedtls_mpi_free(ptr noundef %10)
  %41 = load i32, ptr %8, align 4, !tbaa !12
  %42 = icmp slt i32 %41, 0
  br i1 %42, label %43, label %45

43:                                               ; preds = %40
  %44 = load i32, ptr %8, align 4, !tbaa !12
  store i32 %44, ptr %4, align 4
  store i32 1, ptr %11, align 4
  br label %79

45:                                               ; preds = %40
  br label %46

46:                                               ; preds = %45
  %47 = load ptr, ptr %7, align 8, !tbaa !14
  %48 = load ptr, ptr %6, align 8, !tbaa !8
  %49 = load i64, ptr %9, align 8, !tbaa !10
  %50 = call i32 @mbedtls_asn1_write_len(ptr noundef %47, ptr noundef %48, i64 noundef %49)
  store i32 %50, ptr %8, align 4, !tbaa !12
  %51 = icmp slt i32 %50, 0
  br i1 %51, label %52, label %54

52:                                               ; preds = %46
  %53 = load i32, ptr %8, align 4, !tbaa !12
  store i32 %53, ptr %4, align 4
  store i32 1, ptr %11, align 4
  br label %79

54:                                               ; preds = %46
  %55 = load i32, ptr %8, align 4, !tbaa !12
  %56 = sext i32 %55 to i64
  %57 = load i64, ptr %9, align 8, !tbaa !10
  %58 = add i64 %57, %56
  store i64 %58, ptr %9, align 8, !tbaa !10
  br label %59

59:                                               ; preds = %54
  br label %60

60:                                               ; preds = %59
  br label %61

61:                                               ; preds = %60
  br label %62

62:                                               ; preds = %61
  %63 = load ptr, ptr %7, align 8, !tbaa !14
  %64 = load ptr, ptr %6, align 8, !tbaa !8
  %65 = call i32 @mbedtls_asn1_write_tag(ptr noundef %63, ptr noundef %64, i8 noundef zeroext 48)
  store i32 %65, ptr %8, align 4, !tbaa !12
  %66 = icmp slt i32 %65, 0
  br i1 %66, label %67, label %69

67:                                               ; preds = %62
  %68 = load i32, ptr %8, align 4, !tbaa !12
  store i32 %68, ptr %4, align 4
  store i32 1, ptr %11, align 4
  br label %79

69:                                               ; preds = %62
  %70 = load i32, ptr %8, align 4, !tbaa !12
  %71 = sext i32 %70 to i64
  %72 = load i64, ptr %9, align 8, !tbaa !10
  %73 = add i64 %72, %71
  store i64 %73, ptr %9, align 8, !tbaa !10
  br label %74

74:                                               ; preds = %69
  br label %75

75:                                               ; preds = %74
  br label %76

76:                                               ; preds = %75
  %77 = load i64, ptr %9, align 8, !tbaa !10
  %78 = trunc i64 %77 to i32
  store i32 %78, ptr %4, align 4
  store i32 1, ptr %11, align 4
  br label %79

79:                                               ; preds = %76, %67, %52, %43
  call void @llvm.lifetime.end.p0(i64 16, ptr %10) #9
  call void @llvm.lifetime.end.p0(i64 8, ptr %9) #9
  call void @llvm.lifetime.end.p0(i64 4, ptr %8) #9
  %80 = load i32, ptr %4, align 4
  ret i32 %80
}