; Function Attrs: nounwind uwtable
define hidden i32 @mbedtls_rsa_write_pubkey(ptr noundef %0, ptr noundef %1, ptr noundef %2) local_unnamed_addr #0 {
  %4 = alloca %struct.mbedtls_mpi, align 8
  call void @llvm.lifetime.start.p0(i64 16, ptr nonnull %4) #14
  call void @mbedtls_mpi_init(ptr noundef nonnull %4) #14
  %5 = getelementptr inbounds nuw i8, ptr %0, i64 16
  %6 = call i32 @mbedtls_mpi_cmp_int(ptr noundef nonnull %5, i64 noundef 0) #14
  %.not.i = icmp eq i32 %6, 0
  br i1 %.not.i, label %.critedge.i, label %7

7:                                                ; preds = %3
  %8 = getelementptr inbounds nuw i8, ptr %0, i64 64
  %9 = call i32 @mbedtls_mpi_cmp_int(ptr noundef nonnull %8, i64 noundef 0) #14
  %.not39.i = icmp eq i32 %9, 0
  br i1 %.not39.i, label %.critedge.i, label %10

10:                                               ; preds = %7
  %11 = getelementptr inbounds nuw i8, ptr %0, i64 80
  %12 = call i32 @mbedtls_mpi_cmp_int(ptr noundef nonnull %11, i64 noundef 0) #14
  %.not40.i = icmp eq i32 %12, 0
  br i1 %.not40.i, label %.critedge.i, label %13

13:                                               ; preds = %10
  %14 = getelementptr inbounds nuw i8, ptr %0, i64 48
  %15 = call i32 @mbedtls_mpi_cmp_int(ptr noundef nonnull %14, i64 noundef 0) #14
  %.not41.i = icmp eq i32 %15, 0
  br i1 %.not41.i, label %.critedge.i, label %16

16:                                               ; preds = %13
  %17 = getelementptr inbounds nuw i8, ptr %0, i64 32
  %18 = call i32 @mbedtls_mpi_cmp_int(ptr noundef nonnull %17, i64 noundef 0) #14
  br label %.critedge.i

.critedge.i:                                      ; preds = %16, %3, %7, %10, %13
  %19 = getelementptr inbounds nuw i8, ptr %0, i64 32
  %20 = call i32 @mbedtls_mpi_copy(ptr noundef nonnull %4, ptr noundef nonnull %19) #14
  %.not51.i = icmp eq i32 %20, 0
  br i1 %.not51.i, label %21, label %mbedtls_rsa_export.exit

21:                                               ; preds = %.critedge.i
  %22 = call i32 @mbedtls_asn1_write_mpi(ptr noundef %2, ptr noundef %1, ptr noundef nonnull %4) #14
  %23 = icmp slt i32 %22, 0
  br i1 %23, label %mbedtls_rsa_export.exit.thread48, label %24

mbedtls_rsa_export.exit.thread48:                 ; preds = %21
  call void @mbedtls_mpi_free(ptr noundef nonnull %4) #14
  br label %50

24:                                               ; preds = %21
  %25 = call i32 @mbedtls_mpi_cmp_int(ptr noundef nonnull %5, i64 noundef 0) #14
  %.not.i36 = icmp eq i32 %25, 0
  br i1 %.not.i36, label %.critedge.i42, label %26

26:                                               ; preds = %24
  %27 = getelementptr inbounds nuw i8, ptr %0, i64 64
  %28 = call i32 @mbedtls_mpi_cmp_int(ptr noundef nonnull %27, i64 noundef 0) #14
  %.not39.i37 = icmp eq i32 %28, 0
  br i1 %.not39.i37, label %.critedge.i42, label %29

29:                                               ; preds = %26
  %30 = getelementptr inbounds nuw i8, ptr %0, i64 80
  %31 = call i32 @mbedtls_mpi_cmp_int(ptr noundef nonnull %30, i64 noundef 0) #14
  %.not40.i38 = icmp eq i32 %31, 0
  br i1 %.not40.i38, label %.critedge.i42, label %32

32:                                               ; preds = %29
  %33 = getelementptr inbounds nuw i8, ptr %0, i64 48
  %34 = call i32 @mbedtls_mpi_cmp_int(ptr noundef nonnull %33, i64 noundef 0) #14
  %.not41.i39 = icmp eq i32 %34, 0
  br i1 %.not41.i39, label %.critedge.i42, label %35

35:                                               ; preds = %32
  %36 = call i32 @mbedtls_mpi_cmp_int(ptr noundef nonnull %19, i64 noundef 0) #14
  br label %.critedge.i42

.critedge.i42:                                    ; preds = %35, %24, %26, %29, %32
  %37 = call i32 @mbedtls_mpi_copy(ptr noundef nonnull %4, ptr noundef nonnull %5) #14
  %.not43.i = icmp eq i32 %37, 0
  br i1 %.not43.i, label %38, label %mbedtls_rsa_export.exit

38:                                               ; preds = %.critedge.i42
  %39 = call i32 @mbedtls_asn1_write_mpi(ptr noundef %2, ptr noundef %1, ptr noundef nonnull %4) #14
  %narrow = call i32 @llvm.smax.i32(i32 %39, i32 0)
  %spec.select = add nuw i32 %narrow, %22
  br label %mbedtls_rsa_export.exit

mbedtls_rsa_export.exit:                          ; preds = %.critedge.i42, %.critedge.i, %38
  %.024 = phi i32 [ %39, %38 ], [ %20, %.critedge.i ], [ %37, %.critedge.i42 ]
  %.0.shrunk = phi i32 [ %spec.select, %38 ], [ 0, %.critedge.i ], [ %22, %.critedge.i42 ]
  call void @mbedtls_mpi_free(ptr noundef nonnull %4) #14
  %40 = icmp slt i32 %.024, 0
  br i1 %40, label %50, label %41

41:                                               ; preds = %mbedtls_rsa_export.exit
  %.0 = zext i32 %.0.shrunk to i64
  %42 = call i32 @mbedtls_asn1_write_len(ptr noundef %2, ptr noundef %1, i64 noundef %.0) #14
  %43 = icmp slt i32 %42, 0
  br i1 %43, label %50, label %44

44:                                               ; preds = %41
  %45 = call i32 @mbedtls_asn1_write_tag(ptr noundef %2, ptr noundef %1, i8 noundef zeroext 48) #14
  %46 = icmp slt i32 %45, 0
  br i1 %46, label %50, label %47

47:                                               ; preds = %44
  %48 = add i32 %42, %.0.shrunk
  %49 = add i32 %48, %45
  br label %50

50:                                               ; preds = %mbedtls_rsa_export.exit.thread48, %44, %41, %mbedtls_rsa_export.exit, %47
  %.025 = phi i32 [ %49, %47 ], [ %.024, %mbedtls_rsa_export.exit ], [ %42, %41 ], [ %45, %44 ], [ %22, %mbedtls_rsa_export.exit.thread48 ]
  call void @llvm.lifetime.end.p0(i64 16, ptr nonnull %4) #14
  ret i32 %.025
}